; Function Attrs: mustprogress nofree norecurse nosync nounwind willreturn memory(readwrite, inaccessiblemem: none) uwtable
define internal void @_ZN12_GLOBAL__N_111ISelUpdater11NodeDeletedEPN4llvm6SDNodeES3_(ptr noundef nonnull readonly align 8 captures(none) dereferenceable(32) %0, ptr noundef readnone %1, ptr readnone captures(none) %2) unnamed_addr #22 align 2 {
  %4 = getelementptr inbounds nuw i8, ptr %0, i64 24
  %5 = load ptr, ptr %4, align 8
  %6 = icmp eq ptr %1, null
  %7 = getelementptr inbounds nuw i8, ptr %1, i64 8
  %spec.select.i.i.i = select i1 %6, ptr null, ptr %7
  %8 = load ptr, ptr %5, align 8
  %9 = icmp eq ptr %8, %spec.select.i.i.i
  br i1 %9, label %10, label %13

10:                                               ; preds = %3
  %11 = getelementptr inbounds nuw i8, ptr %8, i64 8
  %12 = load ptr, ptr %11, align 8
  store ptr %12, ptr %5, align 8
  br label %13

13:                                               ; preds = %10, %3
  ret void
}